target datalayout = "e-m:e-p270:32:32-p271:32:32-p272:64:64-i64:64-i128:128-f80:128-n8:16:32:64-S128"
target triple = "x86_64-pc-linux-gnu"

%struct.Scheduler = type { ptr, ptr, i32, ptr, i32, i32, %union.pthread_mutex_t, i32, i32, %union.pthread_mutex_t, %union.pthread_cond_t, ptr, i32, ptr, i32, ptr, i32, ptr, i32, ptr, i32, i32, i32, %union.pthread_mutex_t, i64 }
%union.pthread_cond_t = type { %struct.__pthread_cond_s }
%struct.__pthread_cond_s = type { %union.__atomic_wide_counter, %union.__atomic_wide_counter, [2 x i32], [2 x i32], i32, i32, [2 x i32] }
%union.__atomic_wide_counter = type { i64 }
%union.pthread_mutex_t = type { %struct.__pthread_mutex_s }
%struct.__pthread_mutex_s = type { i32, i32, i32, i32, i32, i16, i16, %struct.__pthread_internal_list }
%struct.__pthread_internal_list = type { ptr, ptr }
%struct.SchSyncQueue = type { ptr, ptr, %union.pthread_mutex_t, ptr, i32 }

; Function Attrs: nounwind uwtable
define i32 @sch_add_sq_enc(ptr noundef %0, i64 noundef %1, ptr noundef %2) #0 {
  %4 = alloca i32, align 4
  %5 = alloca ptr, align 8
  %6 = alloca i64, align 8
  %7 = alloca ptr, align 8
  %8 = alloca ptr, align 8
  %9 = alloca i32, align 4
  %10 = alloca i32, align 4
  store ptr %0, ptr %5, align 8, !tbaa !10
  store i64 %1, ptr %6, align 8, !tbaa !92
  store ptr %2, ptr %7, align 8, !tbaa !97
  call void @llvm.lifetime.start.p0(i64 8, ptr %8) #9
  call void @llvm.lifetime.start.p0(i64 4, ptr %9) #9
  %11 = load ptr, ptr %5, align 8, !tbaa !10
  %12 = getelementptr inbounds nuw %struct.Scheduler, ptr %11, i32 0, i32 15
  %13 = load ptr, ptr %5, align 8, !tbaa !10
  %14 = getelementptr inbounds nuw %struct.Scheduler, ptr %13, i32 0, i32 16
  %15 = load ptr, ptr %5, align 8, !tbaa !10
  %16 = getelementptr inbounds nuw %struct.Scheduler, ptr %15, i32 0, i32 16
  %17 = load i32, ptr %16, align 8, !tbaa !72
  %18 = add i32 %17, 1
  %19 = call i32 @grow_array(ptr noundef %12, i32 noundef 72, ptr noundef %14, i32 noundef %18)
  store i32 %19, ptr %9, align 4, !tbaa !12
  %20 = load i32, ptr %9, align 4, !tbaa !12
  %21 = icmp slt i32 %20, 0
  br i1 %21, label %22, label %24

22:                                               ; preds = %3
  %23 = load i32, ptr %9, align 4, !tbaa !12
  store i32 %23, ptr %4, align 4
  store i32 1, ptr %10, align 4
  br label %72

24:                                               ; preds = %3
  %25 = load ptr, ptr %5, align 8, !tbaa !10
  %26 = getelementptr inbounds nuw %struct.Scheduler, ptr %25, i32 0, i32 15
  %27 = load ptr, ptr %26, align 8, !tbaa !73
  %28 = load ptr, ptr %5, align 8, !tbaa !10
  %29 = getelementptr inbounds nuw %struct.Scheduler, ptr %28, i32 0, i32 16
  %30 = load i32, ptr %29, align 8, !tbaa !72
  %31 = sub i32 %30, 1
  %32 = zext i32 %31 to i64
  %33 = getelementptr inbounds nuw %struct.SchSyncQueue, ptr %27, i64 %32
  store ptr %33, ptr %8, align 8, !tbaa !74
  %34 = load i64, ptr %6, align 8, !tbaa !92
  %35 = load ptr, ptr %7, align 8, !tbaa !97
  %36 = call ptr @sq_alloc(i32 noundef 1, i64 noundef %34, ptr noundef %35)
  %37 = load ptr, ptr %8, align 8, !tbaa !74
  %38 = getelementptr inbounds nuw %struct.SchSyncQueue, ptr %37, i32 0, i32 0
  store ptr %36, ptr %38, align 8, !tbaa !130
  %39 = load ptr, ptr %8, align 8, !tbaa !74
  %40 = getelementptr inbounds nuw %struct.SchSyncQueue, ptr %39, i32 0, i32 0
  %41 = load ptr, ptr %40, align 8, !tbaa !130
  %42 = icmp ne ptr %41, null
  br i1 %42, label %44, label %43

43:                                               ; preds = %24
  store i32 -12, ptr %4, align 4
  store i32 1, ptr %10, align 4
  br label %72

44:                                               ; preds = %24
  %45 = call ptr @av_frame_alloc()
  %46 = load ptr, ptr %8, align 8, !tbaa !74
  %47 = getelementptr inbounds nuw %struct.SchSyncQueue, ptr %46, i32 0, i32 1
  store ptr %45, ptr %47, align 8, !tbaa !133
  %48 = load ptr, ptr %8, align 8, !tbaa !74
  %49 = getelementptr inbounds nuw %struct.SchSyncQueue, ptr %48, i32 0, i32 1
  %50 = load ptr, ptr %49, align 8, !tbaa !133
  %51 = icmp ne ptr %50, null
  br i1 %51, label %53, label %52

52:                                               ; preds = %44
  store i32 -12, ptr %4, align 4
  store i32 1, ptr %10, align 4
  br label %72

53:                                               ; preds = %44
  %54 = load ptr, ptr %8, align 8, !tbaa !74
  %55 = getelementptr inbounds nuw %struct.SchSyncQueue, ptr %54, i32 0, i32 2
  %56 = call i32 @pthread_mutex_init(ptr noundef %55, ptr noundef null) #9
  store i32 %56, ptr %9, align 4, !tbaa !12
  %57 = load i32, ptr %9, align 4, !tbaa !12
  %58 = icmp ne i32 %57, 0
  br i1 %58, label %59, label %62

59:                                               ; preds = %53
  %60 = load i32, ptr %9, align 4, !tbaa !12
  %61 = sub nsw i32 0, %60
  store i32 %61, ptr %4, align 4
  store i32 1, ptr %10, align 4
  br label %72

62:                                               ; preds = %53
  %63 = load ptr, ptr %8, align 8, !tbaa !74
  %64 = load ptr, ptr %5, align 8, !tbaa !10
  %65 = getelementptr inbounds nuw %struct.Scheduler, ptr %64, i32 0, i32 15
  %66 = load ptr, ptr %65, align 8, !tbaa !73
  %67 = ptrtoint ptr %63 to i64
  %68 = ptrtoint ptr %66 to i64
  %69 = sub i64 %67, %68
  %70 = sdiv exact i64 %69, 72
  %71 = trunc i64 %70 to i32
  store i32 %71, ptr %4, align 4
  store i32 1, ptr %10, align 4
  br label %72

72:                                               ; preds = %62, %59, %52, %43, %22
  call void @llvm.lifetime.end.p0(i64 4, ptr %9) #9
  call void @llvm.lifetime.end.p0(i64 8, ptr %8) #9
  %73 = load i32, ptr %4, align 4
  ret i32 %73
}