; Function Attrs: nounwind uwtable
define i32 @sch_add_sq_enc(ptr noundef %0, i64 noundef %1, ptr noundef %2) local_unnamed_addr #0 {
  %4 = getelementptr inbounds nuw i8, ptr %0, i64 208
  %5 = getelementptr inbounds nuw i8, ptr %0, i64 216
  %6 = load i32, ptr %5, align 8, !tbaa !59
  %7 = add i32 %6, 1
  %8 = tail call i32 @grow_array(ptr noundef nonnull %4, i32 noundef 72, ptr noundef nonnull %5, i32 noundef %7) #9
  %9 = icmp slt i32 %8, 0
  br i1 %9, label %32, label %10

10:                                               ; preds = %3
  %11 = load ptr, ptr %4, align 8, !tbaa !63
  %12 = load i32, ptr %5, align 8, !tbaa !59
  %13 = add i32 %12, -1
  %14 = zext i32 %13 to i64
  %15 = getelementptr inbounds nuw %struct.SchSyncQueue, ptr %11, i64 %14
  %16 = tail call ptr @sq_alloc(i32 noundef 1, i64 noundef %1, ptr noundef %2) #9
  store ptr %16, ptr %15, align 8, !tbaa !113
  %.not = icmp eq ptr %16, null
  br i1 %.not, label %32, label %17

17:                                               ; preds = %10
  %18 = tail call ptr @av_frame_alloc() #9
  %19 = getelementptr inbounds nuw i8, ptr %15, i64 8
  store ptr %18, ptr %19, align 8, !tbaa !116
  %.not20 = icmp eq ptr %18, null
  br i1 %.not20, label %32, label %20

20:                                               ; preds = %17
  %21 = getelementptr inbounds nuw i8, ptr %15, i64 16
  %22 = tail call i32 @pthread_mutex_init(ptr noundef nonnull %21, ptr noundef null) #9
  %.not21 = icmp eq i32 %22, 0
  br i1 %.not21, label %25, label %23

23:                                               ; preds = %20
  %24 = sub nsw i32 0, %22
  br label %32

25:                                               ; preds = %20
  %26 = load ptr, ptr %4, align 8, !tbaa !63
  %27 = ptrtoint ptr %15 to i64
  %28 = ptrtoint ptr %26 to i64
  %29 = sub i64 %27, %28
  %30 = sdiv exact i64 %29, 72
  %31 = trunc i64 %30 to i32
  br label %32

32:                                               ; preds = %17, %10, %3, %25, %23
  %.0 = phi i32 [ %24, %23 ], [ %31, %25 ], [ %8, %3 ], [ -12, %10 ], [ -12, %17 ]
  ret i32 %.0
}